Certificate:
    Data:
        Version: 3 (0x2)
        Serial Number: 1 (0x1)
        Signature Algorithm: md5WithRSAEncryption
        Issuer: C=BE, ST=Liege, L=Liege, O=HEPL, OU=HEPL, CN=Greenlamp/emailAddress=gabriel.knuts@gmail.com
        Validity
            Not Before: Jan 17 13:09:47 2013 GMT
            Not After : Jan 17 13:09:47 2014 GMT
        Subject: C=BE, ST=Liege, O=HEPL, OU=HEPL, CN=Gabriel Knuts
        Subject Public Key Info:
            Public Key Algorithm: dsaEncryption
                pub: 
                    00:b6:3b:7f:d0:fc:2e:42:40:a1:f8:6a:72:67:7e:
                    85:7d:79:45:84:f0:e9:ec:99:66:b6:f1:2e:24:90:
                    05:7e:0e:3f:73:a7:b9:21:6d:ae:c1:f0:18:51:8d:
                    1f:11:29:22:9e:16:cf:12:ec:99:f5:5f:2f:76:8b:
                    4c:c7:8b:58:22:f6:ac:e8:5a:56:83:95:cd:94:5b:
                    e7:b7:61:f6:fb:b6:8e:72:26:a0:1d:ba:b6:4c:15:
                    43:4f:75:f1:69:7e:6f:3b:65:c5:33:c3:d9:18:ab:
                    eb:94:9a:28:cb:0b:0a:70:f4:8e:52:ee:e5:99:f8:
                    25:dd:96:02:38:7d:16:dc:3c
                P:   
                    00:fd:7f:53:81:1d:75:12:29:52:df:4a:9c:2e:ec:
                    e4:e7:f6:11:b7:52:3c:ef:44:00:c3:1e:3f:80:b6:
                    51:26:69:45:5d:40:22:51:fb:59:3d:8d:58:fa:bf:
                    c5:f5:ba:30:f6:cb:9b:55:6c:d7:81:3b:80:1d:34:
                    6f:f2:66:60:b7:6b:99:50:a5:a4:9f:9f:e8:04:7b:
                    10:22:c2:4f:bb:a9:d7:fe:b7:c6:1b:f8:3b:57:e7:
                    c6:a8:a6:15:0f:04:fb:83:f6:d3:c5:1e:c3:02:35:
                    54:13:5a:16:91:32:f6:75:f3:ae:2b:61:d7:2a:ef:
                    f2:22:03:19:9d:d1:48:01:c7
                Q:   
                    00:97:60:50:8f:15:23:0b:cc:b2:92:b9:82:a2:eb:
                    84:0b:f0:58:1c:f5
                G:   
                    00:f7:e1:a0:85:d6:9b:3d:de:cb:bc:ab:5c:36:b8:
                    57:b9:79:94:af:bb:fa:3a:ea:82:f9:57:4c:0b:3d:
                    07:82:67:51:59:57:8e:ba:d4:59:4f:e6:71:07:10:
                    81:80:b4:49:16:71:23:e8:4c:28:16:13:b7:cf:09:
                    32:8c:c8:a6:e1:3c:16:7a:8b:54:7c:8d:28:e0:a3:
                    ae:1e:2b:b3:a6:75:91:6e:a3:7f:0b:fa:21:35:62:
                    f1:fb:62:7a:01:24:3b:cc:a4:f1:be:a8:51:90:89:
                    a8:83:df:e1:5a:e5:9f:06:92:8b:66:5e:80:7b:55:
                    25:64:01:4c:3b:fe:cf:49:2a
        X509v3 extensions:
            X509v3 Basic Constraints: 
                CA:FALSE
            Netscape Comment: 
                OpenSSL Generated Certificate
            X509v3 Subject Key Identifier: 
                46:A8:86:DA:25:B4:F7:0C:72:6F:C2:25:E2:39:72:B0:67:0F:37:C3
            X509v3 Authority Key Identifier: 
                keyid:EA:EA:3C:ED:22:E8:36:AC:39:A8:FA:D0:F3:18:9D:1D:27:87:FF:3C
                DirName:/C=BE/ST=Liege/L=Liege/O=HEPL/OU=HEPL/CN=Greenlamp/emailAddress=gabriel.knuts@gmail.com
                serial:E6:1F:6E:2D:8F:0B:34:46

    Signature Algorithm: md5WithRSAEncryption
        0f:f4:40:b2:1d:de:a8:1e:f2:9c:27:48:e2:b2:5f:be:71:dc:
        a2:4c:8d:fe:76:d3:3b:c7:d6:d0:b7:a6:fc:49:77:04:bc:21:
        b8:df:4b:2e:6f:7f:71:82:26:cd:f6:62:08:6c:ff:66:d9:82:
        a1:ea:f1:70:2d:7c:0a:75:9f:79:d0:6b:35:3f:e2:10:dc:26:
        71:90:5f:b9:49:e6:7e:d2:5b:55:f9:a9:42:21:25:eb:af:9d:
        68:88:1e:76:6e:59:f0:e0:65:29:28:53:a8:8c:24:d5:7a:39:
        ca:1a:71:87:69:fe:ff:c2:c1:cf:37:71:9f:1b:24:55:a2:30:
        43:fa
-----BEGIN CERTIFICATE-----
MIIEiDCCA/GgAwIBAgIBATANBgkqhkiG9w0BAQQFADCBhzELMAkGA1UEBhMCQkUx
DjAMBgNVBAgTBUxpZWdlMQ4wDAYDVQQHEwVMaWVnZTENMAsGA1UEChMESEVQTDEN
MAsGA1UECxMESEVQTDESMBAGA1UEAxMJR3JlZW5sYW1wMSYwJAYJKoZIhvcNAQkB
FhdnYWJyaWVsLmtudXRzQGdtYWlsLmNvbTAeFw0xMzAxMTcxMzA5NDdaFw0xNDAx
MTcxMzA5NDdaMFMxCzAJBgNVBAYTAkJFMQ4wDAYDVQQIEwVMaWVnZTENMAsGA1UE
ChMESEVQTDENMAsGA1UECxMESEVQTDEWMBQGA1UEAxMNR2FicmllbCBLbnV0czCC
AbgwggEsBgcqhkjOOAQBMIIBHwKBgQD9f1OBHXUSKVLfSpwu7OTn9hG3UjzvRADD
Hj+AtlEmaUVdQCJR+1k9jVj6v8X1ujD2y5tVbNeBO4AdNG/yZmC3a5lQpaSfn+gE
exAiwk+7qdf+t8Yb+DtX58aophUPBPuD9tPFHsMCNVQTWhaRMvZ1864rYdcq7/Ii
Axmd0UgBxwIVAJdgUI8VIwvMspK5gqLrhAvwWBz1AoGBAPfhoIXWmz3ey7yrXDa4
V7l5lK+7+jrqgvlXTAs9B4JnUVlXjrrUWU/mcQcQgYC0SRZxI+hMKBYTt88JMozI
puE8FnqLVHyNKOCjrh4rs6Z1kW6jfwv6ITVi8ftiegEkO8yk8b6oUZCJqIPf4Vrl
nwaSi2ZegHtVJWQBTDv+z0kqA4GFAAKBgQC2O3/Q/C5CQKH4anJnfoV9eUWE8Ons
mWa28S4kkAV+Dj9zp7khba7B8BhRjR8RKSKeFs8S7Jn1Xy92i0zHi1gi9qzoWlaD
lc2UW+e3Yfb7to5yJqAdurZMFUNPdfFpfm87ZcUzw9kYq+uUmijLCwpw9I5S7uWZ
+CXdlgI4fRbcPKOCARswggEXMAkGA1UdEwQCMAAwLAYJYIZIAYb4QgENBB8WHU9w
ZW5TU0wgR2VuZXJhdGVkIENlcnRpZmljYXRlMB0GA1UdDgQWBBRGqIbaJbT3DHJv
wiXiOXKwZw83wzCBvAYDVR0jBIG0MIGxgBTq6jztIug2rDmo+tDzGJ0dJ4f/PKGB
jaSBijCBhzELMAkGA1UEBhMCQkUxDjAMBgNVBAgTBUxpZWdlMQ4wDAYDVQQHEwVM
aWVnZTENMAsGA1UEChMESEVQTDENMAsGA1UECxMESEVQTDESMBAGA1UEAxMJR3Jl
ZW5sYW1wMSYwJAYJKoZIhvcNAQkBFhdnYWJyaWVsLmtudXRzQGdtYWlsLmNvbYIJ
AOYfbi2PCzRGMA0GCSqGSIb3DQEBBAUAA4GBAA/0QLId3qge8pwnSOKyX75x3KJM
jf520zvH1tC3pvxJdwS8IbjfSy5vf3GCJs32Yghs/2bZgqHq8XAtfAp1n3nQazU/
4hDcJnGQX7lJ5n7SW1X5qUIhJeuvnWiIHnZuWfDgZSkoU6iMJNV6OcoacYdp/v/C
wc83cZ8bJFWiMEP6
-----END CERTIFICATE-----
