Certificate:
    Data:
        Version: 3 (0x2)
        Serial Number: 2 (0x2)
        Signature Algorithm: md5WithRSAEncryption
        Issuer: C=BE, ST=Liege, L=Liege, O=HEPL, OU=HEPL, CN=Greenlamp/emailAddress=gabriel.knuts@gmail.com
        Validity
            Not Before: Jan 17 13:18:40 2013 GMT
            Not After : Jan 17 13:18:40 2014 GMT
        Subject: C=BE, ST=Liege, O=HEPL, OU=HEPL, CN=Leticia Knuts
        Subject Public Key Info:
            Public Key Algorithm: dsaEncryption
                pub: 
                    00:cf:3e:b9:75:bf:aa:09:4b:95:57:3b:c8:b9:1c:
                    57:4c:ba:db:b7:7a:2f:49:ce:ce:96:43:a9:39:02:
                    58:b4:bd:32:0b:ec:30:e4:1a:24:5c:f7:5a:89:9a:
                    cc:62:ea:ba:87:44:51:d0:2e:55:e0:4e:22:18:1d:
                    a1:de:61:1a:c4:26:be:8e:45:b5:8a:d5:7e:86:46:
                    63:e7:df:80:98:c5:46:d3:bd:d1:54:06:b8:2f:11:
                    ff:5e:6b:d4:ce:d3:75:3f:0f:25:c0:12:40:bb:a6:
                    39:b0:17:63:d9:20:67:c9:95:87:d9:49:87:6c:1e:
                    e3:85:4a:be:2a:31:cc:fa:49
                P:   
                    00:fd:7f:53:81:1d:75:12:29:52:df:4a:9c:2e:ec:
                    e4:e7:f6:11:b7:52:3c:ef:44:00:c3:1e:3f:80:b6:
                    51:26:69:45:5d:40:22:51:fb:59:3d:8d:58:fa:bf:
                    c5:f5:ba:30:f6:cb:9b:55:6c:d7:81:3b:80:1d:34:
                    6f:f2:66:60:b7:6b:99:50:a5:a4:9f:9f:e8:04:7b:
                    10:22:c2:4f:bb:a9:d7:fe:b7:c6:1b:f8:3b:57:e7:
                    c6:a8:a6:15:0f:04:fb:83:f6:d3:c5:1e:c3:02:35:
                    54:13:5a:16:91:32:f6:75:f3:ae:2b:61:d7:2a:ef:
                    f2:22:03:19:9d:d1:48:01:c7
                Q:   
                    00:97:60:50:8f:15:23:0b:cc:b2:92:b9:82:a2:eb:
                    84:0b:f0:58:1c:f5
                G:   
                    00:f7:e1:a0:85:d6:9b:3d:de:cb:bc:ab:5c:36:b8:
                    57:b9:79:94:af:bb:fa:3a:ea:82:f9:57:4c:0b:3d:
                    07:82:67:51:59:57:8e:ba:d4:59:4f:e6:71:07:10:
                    81:80:b4:49:16:71:23:e8:4c:28:16:13:b7:cf:09:
                    32:8c:c8:a6:e1:3c:16:7a:8b:54:7c:8d:28:e0:a3:
                    ae:1e:2b:b3:a6:75:91:6e:a3:7f:0b:fa:21:35:62:
                    f1:fb:62:7a:01:24:3b:cc:a4:f1:be:a8:51:90:89:
                    a8:83:df:e1:5a:e5:9f:06:92:8b:66:5e:80:7b:55:
                    25:64:01:4c:3b:fe:cf:49:2a
        X509v3 extensions:
            X509v3 Basic Constraints: 
                CA:FALSE
            Netscape Comment: 
                OpenSSL Generated Certificate
            X509v3 Subject Key Identifier: 
                25:21:D6:9E:CE:91:43:6C:A0:A8:4F:88:DA:BA:2B:F0:3C:34:D2:9D
            X509v3 Authority Key Identifier: 
                keyid:EA:EA:3C:ED:22:E8:36:AC:39:A8:FA:D0:F3:18:9D:1D:27:87:FF:3C
                DirName:/C=BE/ST=Liege/L=Liege/O=HEPL/OU=HEPL/CN=Greenlamp/emailAddress=gabriel.knuts@gmail.com
                serial:E6:1F:6E:2D:8F:0B:34:46

    Signature Algorithm: md5WithRSAEncryption
        43:19:08:54:32:68:8c:0a:5a:5e:43:90:22:b5:15:e4:29:73:
        a6:7f:87:c8:8a:09:5e:3b:c3:3f:24:73:3f:ab:91:b0:c6:b2:
        3e:9c:bd:26:24:92:bd:ec:d2:34:7c:48:7e:96:55:f5:00:b8:
        f0:70:5f:b7:c3:2f:04:7c:07:ff:85:a0:2f:56:52:16:72:ba:
        5e:45:4d:57:9d:ec:2a:6f:89:2e:b2:5a:5e:be:d3:56:7a:28:
        94:ca:0e:54:a0:96:7d:c2:76:ea:e7:97:05:7b:02:aa:39:f5:
        b6:8c:c0:e5:81:ed:5e:32:e4:9c:f5:83:27:a9:d1:df:b7:1f:
        fa:34
-----BEGIN CERTIFICATE-----
MIIEiDCCA/GgAwIBAgIBAjANBgkqhkiG9w0BAQQFADCBhzELMAkGA1UEBhMCQkUx
DjAMBgNVBAgTBUxpZWdlMQ4wDAYDVQQHEwVMaWVnZTENMAsGA1UEChMESEVQTDEN
MAsGA1UECxMESEVQTDESMBAGA1UEAxMJR3JlZW5sYW1wMSYwJAYJKoZIhvcNAQkB
FhdnYWJyaWVsLmtudXRzQGdtYWlsLmNvbTAeFw0xMzAxMTcxMzE4NDBaFw0xNDAx
MTcxMzE4NDBaMFMxCzAJBgNVBAYTAkJFMQ4wDAYDVQQIEwVMaWVnZTENMAsGA1UE
ChMESEVQTDENMAsGA1UECxMESEVQTDEWMBQGA1UEAxMNTGV0aWNpYSBLbnV0czCC
AbgwggEsBgcqhkjOOAQBMIIBHwKBgQD9f1OBHXUSKVLfSpwu7OTn9hG3UjzvRADD
Hj+AtlEmaUVdQCJR+1k9jVj6v8X1ujD2y5tVbNeBO4AdNG/yZmC3a5lQpaSfn+gE
exAiwk+7qdf+t8Yb+DtX58aophUPBPuD9tPFHsMCNVQTWhaRMvZ1864rYdcq7/Ii
Axmd0UgBxwIVAJdgUI8VIwvMspK5gqLrhAvwWBz1AoGBAPfhoIXWmz3ey7yrXDa4
V7l5lK+7+jrqgvlXTAs9B4JnUVlXjrrUWU/mcQcQgYC0SRZxI+hMKBYTt88JMozI
puE8FnqLVHyNKOCjrh4rs6Z1kW6jfwv6ITVi8ftiegEkO8yk8b6oUZCJqIPf4Vrl
nwaSi2ZegHtVJWQBTDv+z0kqA4GFAAKBgQDPPrl1v6oJS5VXO8i5HFdMutu3ei9J
zs6WQ6k5Ali0vTIL7DDkGiRc91qJmsxi6rqHRFHQLlXgTiIYHaHeYRrEJr6ORbWK
1X6GRmPn34CYxUbTvdFUBrgvEf9ea9TO03U/DyXAEkC7pjmwF2PZIGfJlYfZSYds
HuOFSr4qMcz6SaOCARswggEXMAkGA1UdEwQCMAAwLAYJYIZIAYb4QgENBB8WHU9w
ZW5TU0wgR2VuZXJhdGVkIENlcnRpZmljYXRlMB0GA1UdDgQWBBQlIdaezpFDbKCo
T4jauivwPDTSnTCBvAYDVR0jBIG0MIGxgBTq6jztIug2rDmo+tDzGJ0dJ4f/PKGB
jaSBijCBhzELMAkGA1UEBhMCQkUxDjAMBgNVBAgTBUxpZWdlMQ4wDAYDVQQHEwVM
aWVnZTENMAsGA1UEChMESEVQTDENMAsGA1UECxMESEVQTDESMBAGA1UEAxMJR3Jl
ZW5sYW1wMSYwJAYJKoZIhvcNAQkBFhdnYWJyaWVsLmtudXRzQGdtYWlsLmNvbYIJ
AOYfbi2PCzRGMA0GCSqGSIb3DQEBBAUAA4GBAEMZCFQyaIwKWl5DkCK1FeQpc6Z/
h8iKCV47wz8kcz+rkbDGsj6cvSYkkr3s0jR8SH6WVfUAuPBwX7fDLwR8B/+FoC9W
UhZyul5FTVed7CpviS6yWl6+01Z6KJTKDlSgln3CdurnlwV7Aqo59baMwOWB7V4y
5Jz1gyep0d+3H/o0
-----END CERTIFICATE-----
